target datalayout = "e-m:e-p270:32:32-p271:32:32-p272:64:64-i64:64-i128:128-f80:128-n8:16:32:64-S128"
target triple = "x86_64-pc-linux-gnu"

%struct._zval_struct = type { %union._zend_value, %union.anon, %union.anon.2 }
%union._zend_value = type { i64 }
%union.anon = type { i32 }
%union.anon.2 = type { i32 }
%struct._zend_array = type { %struct._zend_refcounted_h, %union.anon.4, i32, %union.anon.6, i32, i32, i32, i32, i64, ptr }
%struct._zend_refcounted_h = type { i32, %union.anon.3 }
%union.anon.3 = type { i32 }
%union.anon.4 = type { i32 }
%union.anon.6 = type { ptr }
%struct._zend_rsrc_list_dtors_entry = type { ptr, ptr, ptr, i32, i32 }

@list_destructors = internal global %struct._zend_array zeroinitializer, align 8

; Function Attrs: nounwind uwtable
define i32 @zend_fetch_list_dtor_id(ptr noundef %0) #0 {
  %2 = alloca ptr, align 8
  %3 = alloca i32, align 4
  %4 = alloca ptr, align 8
  %5 = alloca ptr, align 8
  %6 = alloca ptr, align 8
  %7 = alloca i64, align 8
  %8 = alloca ptr, align 8
  %9 = alloca ptr, align 8
  store ptr %0, ptr %4, align 8
  br label %10

10:                                               ; preds = %1
  store ptr @list_destructors, ptr %6, align 8
  store i64 0, ptr %7, align 8
  %11 = load ptr, ptr %6, align 8
  %12 = getelementptr inbounds %struct._zend_array, ptr %11, i32 0, i32 3
  %13 = load ptr, ptr %12, align 8
  %14 = getelementptr inbounds %struct._zval_struct, ptr %13, i64 0
  store ptr %14, ptr %8, align 8
  %15 = load ptr, ptr %6, align 8
  %16 = getelementptr inbounds %struct._zend_array, ptr %15, i32 0, i32 3
  %17 = load ptr, ptr %16, align 8
  %18 = load ptr, ptr %6, align 8
  %19 = getelementptr inbounds %struct._zend_array, ptr %18, i32 0, i32 4
  %20 = load i32, ptr %19, align 8
  %21 = zext i32 %20 to i64
  %22 = getelementptr inbounds %struct._zval_struct, ptr %17, i64 %21
  store ptr %22, ptr %9, align 8
  %23 = load ptr, ptr %6, align 8
  %24 = getelementptr inbounds %struct._zend_array, ptr %23, i32 0, i32 1
  %25 = load i32, ptr %24, align 8
  %26 = and i32 %25, 4
  %27 = icmp ne i32 %26, 0
  call void @llvm.assume(i1 %27)
  br label %28

28:                                               ; preds = %65, %10
  %29 = load ptr, ptr %8, align 8
  %30 = load ptr, ptr %9, align 8
  %31 = icmp ne ptr %29, %30
  br i1 %31, label %32, label %70

32:                                               ; preds = %28
  %33 = load ptr, ptr %8, align 8
  store ptr %33, ptr %2, align 8
  %34 = load ptr, ptr %2, align 8
  %35 = getelementptr inbounds %struct._zval_struct, ptr %34, i32 0, i32 1
  %36 = load i8, ptr %35, align 8
  %37 = zext i8 %36 to i32
  %38 = icmp eq i32 %37, 0
  %39 = xor i1 %38, true
  %40 = xor i1 %39, true
  %41 = zext i1 %40 to i32
  %42 = sext i32 %41 to i64
  %43 = icmp ne i64 %42, 0
  br i1 %43, label %44, label %45

44:                                               ; preds = %32
  br label %65

45:                                               ; preds = %32
  %46 = load ptr, ptr %8, align 8
  %47 = getelementptr inbounds %struct._zval_struct, ptr %46, i32 0, i32 0
  %48 = load ptr, ptr %47, align 8
  store ptr %48, ptr %5, align 8
  %49 = load ptr, ptr %5, align 8
  %50 = getelementptr inbounds %struct._zend_rsrc_list_dtors_entry, ptr %49, i32 0, i32 2
  %51 = load ptr, ptr %50, align 8
  %52 = icmp ne ptr %51, null
  br i1 %52, label %53, label %64

53:                                               ; preds = %45
  %54 = load ptr, ptr %4, align 8
  %55 = load ptr, ptr %5, align 8
  %56 = getelementptr inbounds %struct._zend_rsrc_list_dtors_entry, ptr %55, i32 0, i32 2
  %57 = load ptr, ptr %56, align 8
  %58 = call i32 @strcmp(ptr noundef %54, ptr noundef %57) #13
  %59 = icmp eq i32 %58, 0
  br i1 %59, label %60, label %64

60:                                               ; preds = %53
  %61 = load ptr, ptr %5, align 8
  %62 = getelementptr inbounds %struct._zend_rsrc_list_dtors_entry, ptr %61, i32 0, i32 4
  %63 = load i32, ptr %62, align 4
  store i32 %63, ptr %3, align 4
  br label %72

64:                                               ; preds = %53, %45
  br label %65

65:                                               ; preds = %64, %44
  %66 = load ptr, ptr %8, align 8
  %67 = getelementptr inbounds %struct._zval_struct, ptr %66, i32 1
  store ptr %67, ptr %8, align 8
  %68 = load i64, ptr %7, align 8
  %69 = add i64 %68, 1
  store i64 %69, ptr %7, align 8
  br label %28

70:                                               ; preds = %28
  br label %71

71:                                               ; preds = %70
  store i32 0, ptr %3, align 4
  br label %72

72:                                               ; preds = %71, %60
  %73 = load i32, ptr %3, align 4
  ret i32 %73
}