; Function Attrs: nofree nounwind memory(read, inaccessiblemem: write) uwtable
define i32 @zend_fetch_list_dtor_id(ptr nocapture noundef readonly %0) local_unnamed_addr #6 {
  %2 = load ptr, ptr getelementptr inbounds (%struct._zend_array, ptr @list_destructors, i64 0, i32 3), align 8
  %3 = load i32, ptr getelementptr inbounds (%struct._zend_array, ptr @list_destructors, i64 0, i32 4), align 8
  %4 = zext i32 %3 to i64
  %5 = getelementptr inbounds %struct._zval_struct, ptr %2, i64 %4
  %6 = load i32, ptr getelementptr inbounds (%struct._zend_array, ptr @list_destructors, i64 0, i32 1), align 8
  %7 = and i32 %6, 4
  %8 = icmp ne i32 %7, 0
  tail call void @llvm.assume(i1 %8)
  %.not19 = icmp eq i32 %3, 0
  br i1 %.not19, label %.loopexit, label %.lr.ph

.lr.ph:                                           ; preds = %1, %22
  %.01520 = phi ptr [ %23, %22 ], [ %2, %1 ]
  %9 = getelementptr inbounds i8, ptr %.01520, i64 8
  %10 = load i8, ptr %9, align 8
  %11 = icmp eq i8 %10, 0
  br i1 %11, label %22, label %12

12:                                               ; preds = %.lr.ph
  %13 = load ptr, ptr %.01520, align 8
  %14 = getelementptr inbounds i8, ptr %13, i64 16
  %15 = load ptr, ptr %14, align 8
  %.not18 = icmp eq ptr %15, null
  br i1 %.not18, label %22, label %16

16:                                               ; preds = %12
  %17 = tail call i32 @strcmp(ptr noundef nonnull dereferenceable(1) %0, ptr noundef nonnull dereferenceable(1) %15) #16
  %18 = icmp eq i32 %17, 0
  br i1 %18, label %19, label %22

19:                                               ; preds = %16
  %20 = getelementptr inbounds i8, ptr %13, i64 28
  %21 = load i32, ptr %20, align 4
  br label %.loopexit

22:                                               ; preds = %12, %16, %.lr.ph
  %23 = getelementptr inbounds i8, ptr %.01520, i64 16
  %.not = icmp eq ptr %23, %5
  br i1 %.not, label %.loopexit, label %.lr.ph

.loopexit:                                        ; preds = %22, %1, %19
  %.0 = phi i32 [ %21, %19 ], [ 0, %1 ], [ 0, %22 ]
  ret i32 %.0
}